
Merging program properties

Removed property 0xc0000002 to merge build/kernel.o (0x3) and build/int.o (not found)
Removed property 0xc0000002 to merge build/kernel.o (not found) and build/main.o (0x3)

Discarded input sections

 .data          0x0000000000000000        0x0 build/int.o
 .bss           0x0000000000000000        0x0 build/int.o
 .text          0x0000000000000000        0x0 build/kernel.o
 .data          0x0000000000000000        0x0 build/kernel.o
 .bss           0x0000000000000000        0x0 build/kernel.o
 .bss.native_lapic_ipi_vectored
                0x0000000000000000        0x8 build/kernel.o
 .bss.kdata_address
                0x0000000000000000        0x8 build/kernel.o
 .comment       0x0000000000000000       0x2c build/kernel.o
 .note.GNU-stack
                0x0000000000000000        0x0 build/kernel.o
 .note.gnu.property
                0x0000000000000000       0x20 build/kernel.o
 .eh_frame      0x0000000000000000       0x48 build/kernel.o
 .text          0x0000000000000000        0x0 build/main.o
 .data          0x0000000000000000        0x0 build/main.o
 .bss           0x0000000000000000        0x0 build/main.o
 .text.kcfi_check_hook
                0x0000000000000000        0x7 build/main.o
 .comment       0x0000000000000000       0x2c build/main.o
 .note.GNU-stack
                0x0000000000000000        0x0 build/main.o
 .note.gnu.property
                0x0000000000000000       0x20 build/main.o
 .eh_frame      0x0000000000000000       0xb0 build/main.o
 .data          0x0000000000000000        0x0 build/utils.o
 .bss           0x0000000000000000        0x0 build/utils.o

Memory Configuration

Name             Origin             Length             Attributes
*default*        0x0000000000000000 0xffffffffffffffff

Linker script and memory map

LOAD build/int.o
LOAD build/kernel.o
LOAD build/main.o
LOAD build/utils.o

.text           0x0000000000000000      0x2ba
 *(.text.module_start)
 .text.module_start
                0x0000000000000000      0x14e build/main.o
                0x0000000000000000                module_start
 *(.text*)
 .text          0x000000000000014e       0x70 build/int.o
                0x000000000000014e                ipi_int_handler
                0x0000000000000186                int_handler
 .text.get_kernel_base
                0x00000000000001be       0x1c build/kernel.o
                0x00000000000001be                get_kernel_base
 .text.init_kernel
                0x00000000000001da       0x8e build/kernel.o
                0x00000000000001da                init_kernel
 .text.handle_ipi_request
                0x0000000000000268        0xf build/main.o
                0x0000000000000268                handle_ipi_request
 .text.handle_int
                0x0000000000000277       0x1d build/main.o
                0x0000000000000277                handle_int
 .text.get_dmem
                0x0000000000000294       0x17 build/main.o
                0x0000000000000294                get_dmem
 .text          0x00000000000002ab        0xf build/utils.o
                0x00000000000002ab                memcpy

.plt            0x00000000000002c0        0x0
 .plt           0x00000000000002c0        0x0 build/int.o

.plt.got        0x00000000000002c0        0x0
 .plt.got       0x00000000000002c0        0x0 build/int.o

.rodata         0x00000000000002ba       0x95
 *(.rodata)
 *(.rodata*)
 .rodata.handle_int.str1.1
                0x00000000000002ba       0x95 build/main.o
                                         0x19 (size before relaxing)
 .rodata.module_start.str1.1
                0x000000000000034f       0x7c build/main.o

.gnu.version_d  0x0000000000000350        0x0
 .gnu.version_d
                0x0000000000000350        0x0 build/int.o

.gnu.version    0x0000000000000350        0x0
 .gnu.version   0x0000000000000350        0x0 build/int.o

.gnu.version_r  0x0000000000000350        0x0
 .gnu.version_r
                0x0000000000000350        0x0 build/int.o

.dynsym         0x0000000000000350       0x18
 .dynsym        0x0000000000000350       0x18 build/int.o

.dynstr         0x0000000000000368        0x1
 .dynstr        0x0000000000000368        0x1 build/int.o

.gnu.hash       0x0000000000000370       0x1c
 .gnu.hash      0x0000000000000370       0x1c build/int.o

.sframe         0x000000000000038c        0x0
 .sframe        0x000000000000038c        0x0 build/int.o

.eh_frame_hdr   0x000000000000038c        0x0
 .eh_frame_hdr  0x000000000000038c        0x0 build/kernel.o

.rela.dyn       0x0000000000000390        0x0
 .rela.plt      0x0000000000000390        0x0 build/int.o
 .rela.got      0x0000000000000390        0x0 build/int.o
 .rela.bss      0x0000000000000390        0x0 build/int.o
 .rela.data.rel.ro
                0x0000000000000390        0x0 build/int.o
 .rela.ifunc    0x0000000000000390        0x0 build/int.o

.data
 *(.data)

.dynamic        0x0000000000000390       0xe0
 .dynamic       0x0000000000000390       0xe0 build/int.o
                0x0000000000000390                _DYNAMIC

.got            0x0000000000000470        0x0
 .got           0x0000000000000470        0x0 build/int.o

.got.plt        0x0000000000000470        0x0
 .got.plt       0x0000000000000470        0x0 build/int.o

.data.rel.ro    0x0000000000000470        0x0
 .data.rel.ro   0x0000000000000470        0x0 build/int.o

.bss
 *(.bss)

.dynbss         0x0000000000000470        0x0
 .dynbss        0x0000000000000470        0x0 build/int.o

.bss.kernel_pmap
                0x0000000000000470        0x8
 .bss.kernel_pmap
                0x0000000000000470        0x8 build/kernel.o
                0x0000000000000470                kernel_pmap

.bss.justreturn
                0x0000000000000478        0x8
 .bss.justreturn
                0x0000000000000478        0x8 build/kernel.o
                0x0000000000000478                justreturn

.bss.cpu_apic_ids
                0x0000000000000480        0x8
 .bss.cpu_apic_ids
                0x0000000000000480        0x8 build/kernel.o
                0x0000000000000480                cpu_apic_ids

.bss.kapic_ops  0x0000000000000488        0x8
 .bss.kapic_ops
                0x0000000000000488        0x8 build/kernel.o
                0x0000000000000488                kapic_ops

.bss.kfci_check
                0x0000000000000490        0x8
 .bss.kfci_check
                0x0000000000000490        0x8 build/kernel.o
                0x0000000000000490                kfci_check

.bss.lapic_eoi  0x0000000000000498        0x8
 .bss.lapic_eoi
                0x0000000000000498        0x8 build/kernel.o
                0x0000000000000498                lapic_eoi

.bss.kprintf    0x00000000000004a0        0x8
 .bss.kprintf   0x00000000000004a0        0x8 build/kernel.o
                0x00000000000004a0                kprintf

.bss.kernel_base
                0x00000000000004a8        0x8
 .bss.kernel_base
                0x00000000000004a8        0x8 build/kernel.o
                0x00000000000004a8                kernel_base

/DISCARD/
 *(.comment)
 *(.note.GNU-stack)
 *(.eh_frame)
 *(.interp)
OUTPUT(ipi.elf elf64-x86-64)
